; Function Attrs: mustprogress nounwind uwtable
define hidden noundef i64 @_ZN20ParCompactionManager25pop_shadow_region_mt_safeEPN19ParallelCompactData10RegionDataE(ptr noundef %0) local_unnamed_addr #0 align 2 {
  %2 = load ptr, ptr @_ZN20ParCompactionManager22_shadow_region_monitorE, align 8
  %.not.i.i = icmp eq ptr %2, null
  br i1 %.not.i.i, label %_ZN13MonitorLockerC2EP7MonitorN5Mutex18SafepointCheckFlagE.exit, label %3

3:                                                ; preds = %1
  tail call void @_ZN5Mutex28lock_without_safepoint_checkEv(ptr noundef nonnull align 8 dereferenceable(104) %2) #12
  br label %_ZN13MonitorLockerC2EP7MonitorN5Mutex18SafepointCheckFlagE.exit

_ZN13MonitorLockerC2EP7MonitorN5Mutex18SafepointCheckFlagE.exit: ; preds = %1, %3
  %4 = load ptr, ptr @_ZN20ParCompactionManager20_shadow_region_arrayE, align 8
  %5 = load i32, ptr %4, align 4
  %6 = icmp eq i32 %5, 0
  br i1 %6, label %.lr.ph, label %._crit_edge

.lr.ph:                                           ; preds = %_ZN13MonitorLockerC2EP7MonitorN5Mutex18SafepointCheckFlagE.exit
  %7 = getelementptr inbounds i8, ptr %0, i64 28
  %8 = load i32, ptr @_ZN19ParallelCompactData10RegionData10dc_claimedE, align 4
  br label %15

._crit_edge:                                      ; preds = %_ZN13MonitorLocker4waitEl.exit, %_ZN13MonitorLockerC2EP7MonitorN5Mutex18SafepointCheckFlagE.exit
  %.lcssa4 = phi ptr [ %4, %_ZN13MonitorLockerC2EP7MonitorN5Mutex18SafepointCheckFlagE.exit ], [ %18, %_ZN13MonitorLocker4waitEl.exit ]
  %.lcssa = phi i32 [ %5, %_ZN13MonitorLockerC2EP7MonitorN5Mutex18SafepointCheckFlagE.exit ], [ %19, %_ZN13MonitorLocker4waitEl.exit ]
  %9 = getelementptr inbounds i8, ptr %.lcssa4, i64 8
  %10 = load ptr, ptr %9, align 8
  %11 = add nsw i32 %.lcssa, -1
  store i32 %11, ptr %.lcssa4, align 8
  %12 = sext i32 %11 to i64
  %13 = getelementptr inbounds i64, ptr %10, i64 %12
  %14 = load i64, ptr %13, align 8
  br label %.loopexit

15:                                               ; preds = %.lr.ph, %_ZN13MonitorLocker4waitEl.exit
  %16 = load volatile i32, ptr %7, align 4
  %.not = icmp ult i32 %16, %8
  br i1 %.not, label %_ZN13MonitorLocker4waitEl.exit, label %.loopexit

_ZN13MonitorLocker4waitEl.exit:                   ; preds = %15
  %17 = tail call noundef zeroext i1 @_ZN7Monitor28wait_without_safepoint_checkEm(ptr noundef nonnull align 8 dereferenceable(104) %2, i64 noundef 1) #12
  %18 = load ptr, ptr @_ZN20ParCompactionManager20_shadow_region_arrayE, align 8
  %19 = load i32, ptr %18, align 4
  %20 = icmp eq i32 %19, 0
  br i1 %20, label %15, label %._crit_edge, !llvm.loop !22

.loopexit:                                        ; preds = %15, %._crit_edge
  %.0 = phi i64 [ %14, %._crit_edge ], [ -1, %15 ]
  br i1 %.not.i.i, label %_ZN13MonitorLockerD2Ev.exit, label %21

21:                                               ; preds = %.loopexit
  tail call void @_ZN5Mutex6unlockEv(ptr noundef nonnull align 8 dereferenceable(104) %2) #12
  br label %_ZN13MonitorLockerD2Ev.exit

_ZN13MonitorLockerD2Ev.exit:                      ; preds = %.loopexit, %21
  ret i64 %.0
}